target datalayout = "e-m:e-p270:32:32-p271:32:32-p272:64:64-i64:64-i128:128-f80:128-n8:16:32:64-S128"
target triple = "x86_64-pc-linux-gnu"

%struct.t_mde_delta_h_coll = type { %"class.std::vector", i32, i32, i32, i32, i32, i32, i32, i32, double, double, i8, double, double, double, %"class.std::vector.0", i32, %"class.std::vector.5", i32, %"class.std::vector.0", %"class.std::vector.5" }
%"class.std::vector" = type { %"struct.std::_Vector_base" }
%"struct.std::_Vector_base" = type { %"struct.std::_Vector_base<t_mde_delta_h, std::allocator<t_mde_delta_h>>::_Vector_impl" }
%"struct.std::_Vector_base<t_mde_delta_h, std::allocator<t_mde_delta_h>>::_Vector_impl" = type { %"struct.std::_Vector_base<t_mde_delta_h, std::allocator<t_mde_delta_h>>::_Vector_impl_data" }
%"struct.std::_Vector_base<t_mde_delta_h, std::allocator<t_mde_delta_h>>::_Vector_impl_data" = type { ptr, ptr, ptr }
%"class.std::vector.0" = type { %"struct.std::_Vector_base.1" }
%"struct.std::_Vector_base.1" = type { %"struct.std::_Vector_base<double, std::allocator<double>>::_Vector_impl" }
%"struct.std::_Vector_base<double, std::allocator<double>>::_Vector_impl" = type { %"struct.std::_Vector_base<double, std::allocator<double>>::_Vector_impl_data" }
%"struct.std::_Vector_base<double, std::allocator<double>>::_Vector_impl_data" = type { ptr, ptr, ptr }
%"class.std::vector.5" = type { %"struct.std::_Vector_base.6" }
%"struct.std::_Vector_base.6" = type { %"struct.std::_Vector_base<int, std::allocator<int>>::_Vector_impl" }
%"struct.std::_Vector_base<int, std::allocator<int>>::_Vector_impl" = type { %"struct.std::_Vector_base<int, std::allocator<int>>::_Vector_impl_data" }
%"struct.std::_Vector_base<int, std::allocator<int>>::_Vector_impl_data" = type { ptr, ptr, ptr }
%"class.std::vector.71" = type { %"struct.std::_Vector_base.72" }
%"struct.std::_Vector_base.72" = type { %"struct.std::_Vector_base<float, std::allocator<float>>::_Vector_impl" }
%"struct.std::_Vector_base<float, std::allocator<float>>::_Vector_impl" = type { %"struct.std::_Vector_base<float, std::allocator<float>>::_Vector_impl_data" }
%"struct.std::_Vector_base<float, std::allocator<float>>::_Vector_impl_data" = type { ptr, ptr, ptr }
%struct.t_mde_delta_h = type { %"class.std::vector.71", %"class.std::vector.71", i32, i32, i32, %"struct.std::array", double, i32, %"struct.std::array.76", %"struct.std::array.77", i32, i32, %"class.std::vector.0", i32, i8, %"struct.std::array.78", %"class.std::vector.0", %"struct.std::array.79" }
%"struct.std::array" = type { [2 x %"class.std::vector.5"] }
%"struct.std::array.76" = type { [2 x i64] }
%"struct.std::array.77" = type { [2 x i32] }
%"struct.std::array.78" = type { [5 x i64] }
%"struct.std::array.79" = type { [4 x i32] }

; Function Attrs: mustprogress nounwind uwtable
define internal void @_ZL17mde_delta_h_resetP13t_mde_delta_h(ptr noundef %0) #1 {
  %2 = alloca ptr, align 8
  store ptr %0, ptr %2, align 8, !tbaa !205
  %3 = load ptr, ptr %2, align 8, !tbaa !205
  %4 = getelementptr inbounds nuw %struct.t_mde_delta_h, ptr %3, i32 0, i32 2
  store i32 0, ptr %4, align 8, !tbaa !308
  %5 = load ptr, ptr %2, align 8, !tbaa !205
  %6 = getelementptr inbounds nuw %struct.t_mde_delta_h, ptr %5, i32 0, i32 14
  store i8 0, ptr %6, align 4, !tbaa !309
  ret void
}

; Function Attrs: mustprogress nounwind uwtable
define linkonce_odr noundef nonnull align 8 dereferenceable(272) ptr @_ZNSt6vectorI13t_mde_delta_hSaIS0_EEixEm(ptr noundef nonnull align 8 dereferenceable(24) %0, i64 noundef %1) #1 comdat align 2 {
  %3 = alloca ptr, align 8
  %4 = alloca i64, align 8
  store ptr %0, ptr %3, align 8, !tbaa !179
  store i64 %1, ptr %4, align 8, !tbaa !197
  %5 = load ptr, ptr %3, align 8
  %6 = getelementptr inbounds nuw %"struct.std::_Vector_base", ptr %5, i32 0, i32 0
  %7 = getelementptr inbounds nuw %"struct.std::_Vector_base<t_mde_delta_h, std::allocator<t_mde_delta_h>>::_Vector_impl_data", ptr %6, i32 0, i32 0
  %8 = load ptr, ptr %7, align 8, !tbaa !204
  %9 = load i64, ptr %4, align 8, !tbaa !197
  %10 = getelementptr inbounds nuw %struct.t_mde_delta_h, ptr %8, i64 %9
  ret ptr %10
}

; Function Attrs: mustprogress nounwind uwtable
define void @_Z22mde_delta_h_coll_resetP18t_mde_delta_h_coll(ptr noundef %0) #1 {
  %2 = alloca ptr, align 8
  %3 = alloca i32, align 4
  store ptr %0, ptr %2, align 8, !tbaa !4
  call void @llvm.lifetime.start.p0(i64 4, ptr %3) #17
  store i32 0, ptr %3, align 4, !tbaa !107
  br label %4

4:                                                ; preds = %26, %1
  %5 = load i32, ptr %3, align 4, !tbaa !107
  %6 = load ptr, ptr %2, align 8, !tbaa !4
  %7 = getelementptr inbounds nuw %struct.t_mde_delta_h_coll, ptr %6, i32 0, i32 1
  %8 = load i32, ptr %7, align 8, !tbaa !157
  %9 = icmp slt i32 %5, %8
  br i1 %9, label %10, label %29

10:                                               ; preds = %4
  %11 = load ptr, ptr %2, align 8, !tbaa !4
  %12 = getelementptr inbounds nuw %struct.t_mde_delta_h_coll, ptr %11, i32 0, i32 0
  %13 = load i32, ptr %3, align 4, !tbaa !107
  %14 = sext i32 %13 to i64
  %15 = call noundef nonnull align 8 dereferenceable(272) ptr @_ZNSt6vectorI13t_mde_delta_hSaIS0_EEixEm(ptr noundef nonnull align 8 dereferenceable(24) %12, i64 noundef %14) #17
  %16 = getelementptr inbounds nuw %struct.t_mde_delta_h, ptr %15, i32 0, i32 14
  %17 = load i8, ptr %16, align 4, !tbaa !309, !range !148, !noundef !149
  %18 = trunc i8 %17 to i1
  br i1 %18, label %19, label %25

19:                                               ; preds = %10
  %20 = load ptr, ptr %2, align 8, !tbaa !4
  %21 = getelementptr inbounds nuw %struct.t_mde_delta_h_coll, ptr %20, i32 0, i32 0
  %22 = load i32, ptr %3, align 4, !tbaa !107
  %23 = sext i32 %22 to i64
  %24 = call noundef nonnull align 8 dereferenceable(272) ptr @_ZNSt6vectorI13t_mde_delta_hSaIS0_EEixEm(ptr noundef nonnull align 8 dereferenceable(24) %21, i64 noundef %23) #17
  call void @_ZL17mde_delta_h_resetP13t_mde_delta_h(ptr noundef %24)
  br label %25

25:                                               ; preds = %19, %10
  br label %26

26:                                               ; preds = %25
  %27 = load i32, ptr %3, align 4, !tbaa !107
  %28 = add nsw i32 %27, 1
  store i32 %28, ptr %3, align 4, !tbaa !107
  br label %4, !llvm.loop !417

29:                                               ; preds = %4
  %30 = load ptr, ptr %2, align 8, !tbaa !4
  %31 = getelementptr inbounds nuw %struct.t_mde_delta_h_coll, ptr %30, i32 0, i32 11
  store i8 0, ptr %31, align 8, !tbaa !135
  call void @llvm.lifetime.end.p0(i64 4, ptr %3) #17
  ret void
}