; Function Attrs: mustprogress nofree norecurse nosync nounwind memory(readwrite, inaccessiblemem: none) uwtable
define void @_Z22mde_delta_h_coll_resetP18t_mde_delta_h_coll(ptr noundef captures(none) %0) local_unnamed_addr #14 {
  %2 = getelementptr inbounds nuw i8, ptr %0, i64 24
  %3 = load i32, ptr %2, align 8, !tbaa !153
  %4 = icmp sgt i32 %3, 0
  br i1 %4, label %.lr.ph, label %._crit_edge

.lr.ph:                                           ; preds = %1
  %5 = load ptr, ptr %0, align 8, !tbaa !170
  %wide.trip.count = zext nneg i32 %3 to i64
  br label %6

6:                                                ; preds = %.lr.ph, %13
  %indvars.iv = phi i64 [ 0, %.lr.ph ], [ %indvars.iv.next, %13 ]
  %7 = getelementptr inbounds nuw %struct.t_mde_delta_h, ptr %5, i64 %indvars.iv
  %8 = getelementptr inbounds nuw i8, ptr %7, i64 188
  %9 = load i8, ptr %8, align 4, !tbaa !197, !range !141, !noundef !142
  %10 = trunc nuw i8 %9 to i1
  br i1 %10, label %11, label %13

11:                                               ; preds = %6
  %12 = getelementptr inbounds nuw i8, ptr %7, i64 48
  store i32 0, ptr %12, align 8, !tbaa !196
  store i8 0, ptr %8, align 4, !tbaa !197
  br label %13

13:                                               ; preds = %6, %11
  %indvars.iv.next = add nuw nsw i64 %indvars.iv, 1
  %exitcond.not = icmp eq i64 %indvars.iv.next, %wide.trip.count
  br i1 %exitcond.not, label %._crit_edge, label %6, !llvm.loop !253

._crit_edge:                                      ; preds = %13, %1
  %14 = getelementptr inbounds nuw i8, ptr %0, i64 72
  store i8 0, ptr %14, align 8, !tbaa !130
  ret void
}